target datalayout = "e-m:e-p270:32:32-p271:32:32-p272:64:64-i64:64-i128:128-f80:128-n8:16:32:64-S128"
target triple = "x86_64-pc-linux-gnu"

%"class.pbrt::GammaColorEncoding" = type { float, %"class.pstd::array.11", %"class.pstd::array.12" }
%"class.pstd::array.11" = type { [256 x float] }
%"class.pstd::array.12" = type { [1024 x float] }

; Function Attrs: mustprogress nounwind uwtable
define linkonce_odr dso_local noundef nonnull align 4 dereferenceable(4) ptr @_ZN4pstd5arrayIfLi1024EEixEm(ptr noundef nonnull align 4 dereferenceable(4096) %0, i64 noundef %1) #6 comdat align 2 {
  %3 = alloca ptr, align 8
  %4 = alloca i64, align 8
  store ptr %0, ptr %3, align 8, !tbaa !130
  store i64 %1, ptr %4, align 8, !tbaa !39
  %5 = load ptr, ptr %3, align 8
  %6 = getelementptr inbounds nuw %"class.pstd::array.12", ptr %5, i32 0, i32 0
  %7 = load i64, ptr %4, align 8, !tbaa !39
  %8 = getelementptr inbounds nuw [1024 x float], ptr %6, i64 0, i64 %7
  ret ptr %8
}

; Function Attrs: inlinehint mustprogress nounwind uwtable
define linkonce_odr dso_local noundef float @_ZN4pbrt5ClampIfiiEET_S1_T0_T1_(float noundef %0, i32 noundef %1, i32 noundef %2) #7 comdat {
  %4 = alloca float, align 4
  %5 = alloca float, align 4
  %6 = alloca i32, align 4
  %7 = alloca i32, align 4
  store float %0, ptr %5, align 4, !tbaa !9
  store i32 %1, ptr %6, align 4, !tbaa !23
  store i32 %2, ptr %7, align 4, !tbaa !23
  %8 = load float, ptr %5, align 4, !tbaa !9
  %9 = load i32, ptr %6, align 4, !tbaa !23
  %10 = sitofp i32 %9 to float
  %11 = fcmp olt float %8, %10
  br i1 %11, label %12, label %15

12:                                               ; preds = %3
  %13 = load i32, ptr %6, align 4, !tbaa !23
  %14 = sitofp i32 %13 to float
  store float %14, ptr %4, align 4
  br label %25

15:                                               ; preds = %3
  %16 = load float, ptr %5, align 4, !tbaa !9
  %17 = load i32, ptr %7, align 4, !tbaa !23
  %18 = sitofp i32 %17 to float
  %19 = fcmp ogt float %16, %18
  br i1 %19, label %20, label %23

20:                                               ; preds = %15
  %21 = load i32, ptr %7, align 4, !tbaa !23
  %22 = sitofp i32 %21 to float
  store float %22, ptr %4, align 4
  br label %25

23:                                               ; preds = %15
  %24 = load float, ptr %5, align 4, !tbaa !9
  store float %24, ptr %4, align 4
  br label %25

25:                                               ; preds = %23, %20, %12
  %26 = load float, ptr %4, align 4
  ret float %26
}

; Function Attrs: mustprogress nounwind uwtable
define linkonce_odr dso_local noundef i64 @_ZNK4pstd5arrayIfLi1024EE4sizeEv(ptr noundef nonnull align 4 dereferenceable(4096) %0) #6 comdat align 2 {
  %2 = alloca ptr, align 8
  store ptr %0, ptr %2, align 8, !tbaa !130
  ret i64 1024
}

; Function Attrs: mustprogress nounwind uwtable
define linkonce_odr dso_local noundef nonnull align 4 dereferenceable(4) ptr @_ZN4pstd5arrayIfLi256EEixEm(ptr noundef nonnull align 4 dereferenceable(1024) %0, i64 noundef %1) #6 comdat align 2 {
  %3 = alloca ptr, align 8
  %4 = alloca i64, align 8
  store ptr %0, ptr %3, align 8, !tbaa !128
  store i64 %1, ptr %4, align 8, !tbaa !39
  %5 = load ptr, ptr %3, align 8
  %6 = getelementptr inbounds nuw %"class.pstd::array.11", ptr %5, i32 0, i32 0
  %7 = load i64, ptr %4, align 8, !tbaa !39
  %8 = getelementptr inbounds nuw [256 x float], ptr %6, i64 0, i64 %7
  ret ptr %8
}

; Function Attrs: inlinehint mustprogress nounwind uwtable
define linkonce_odr dso_local noundef float @_ZSt3powff(float noundef %0, float noundef %1) #7 comdat {
  %3 = alloca float, align 4
  %4 = alloca float, align 4
  store float %0, ptr %3, align 4, !tbaa !9
  store float %1, ptr %4, align 4, !tbaa !9
  %5 = load float, ptr %3, align 4, !tbaa !9
  %6 = load float, ptr %4, align 4, !tbaa !9
  %7 = call float @powf(float noundef %5, float noundef %6) #9, !tbaa !23
  ret float %7
}

; Function Attrs: mustprogress nounwind uwtable
define linkonce_odr dso_local void @_ZN4pstd5arrayIfLi1024EEC2Ev(ptr noundef nonnull align 4 dereferenceable(4096) %0) unnamed_addr #6 comdat align 2 {
  %2 = alloca ptr, align 8
  store ptr %0, ptr %2, align 8, !tbaa !130
  %3 = load ptr, ptr %2, align 8
  %4 = getelementptr inbounds nuw %"class.pstd::array.12", ptr %3, i32 0, i32 0
  %5 = getelementptr inbounds float, ptr %4, i64 1024
  br label %6

6:                                                ; preds = %6, %1
  %7 = phi ptr [ %4, %1 ], [ %8, %6 ]
  store float 0.000000e+00, ptr %7, align 4, !tbaa !9
  %8 = getelementptr inbounds float, ptr %7, i64 1
  %9 = icmp eq ptr %8, %5
  br i1 %9, label %10, label %6

10:                                               ; preds = %6
  ret void
}

; Function Attrs: mustprogress nounwind uwtable
define linkonce_odr dso_local void @_ZN4pstd5arrayIfLi256EEC2Ev(ptr noundef nonnull align 4 dereferenceable(1024) %0) unnamed_addr #6 comdat align 2 {
  %2 = alloca ptr, align 8
  store ptr %0, ptr %2, align 8, !tbaa !128
  %3 = load ptr, ptr %2, align 8
  %4 = getelementptr inbounds nuw %"class.pstd::array.11", ptr %3, i32 0, i32 0
  %5 = getelementptr inbounds float, ptr %4, i64 256
  br label %6

6:                                                ; preds = %6, %1
  %7 = phi ptr [ %4, %1 ], [ %8, %6 ]
  store float 0.000000e+00, ptr %7, align 4, !tbaa !9
  %8 = getelementptr inbounds float, ptr %7, i64 1
  %9 = icmp eq ptr %8, %5
  br i1 %9, label %10, label %6

10:                                               ; preds = %6
  ret void
}

; Function Attrs: mustprogress uwtable
define dso_local void @_ZN4pbrt18GammaColorEncodingC2Ef(ptr noundef nonnull align 4 dereferenceable(5124) %0, float noundef %1) unnamed_addr #1 align 2 {
  %3 = alloca ptr, align 8
  %4 = alloca float, align 4
  %5 = alloca i32, align 4
  %6 = alloca float, align 4
  %7 = alloca i32, align 4
  %8 = alloca float, align 4
  store ptr %0, ptr %3, align 8, !tbaa !118
  store float %1, ptr %4, align 4, !tbaa !9
  %9 = load ptr, ptr %3, align 8
  %10 = getelementptr inbounds nuw %"class.pbrt::GammaColorEncoding", ptr %9, i32 0, i32 0
  %11 = load float, ptr %4, align 4, !tbaa !9
  store float %11, ptr %10, align 4, !tbaa !122
  %12 = getelementptr inbounds nuw %"class.pbrt::GammaColorEncoding", ptr %9, i32 0, i32 1
  call void @_ZN4pstd5arrayIfLi256EEC2Ev(ptr noundef nonnull align 4 dereferenceable(1024) %12) #9
  %13 = getelementptr inbounds nuw %"class.pbrt::GammaColorEncoding", ptr %9, i32 0, i32 2
  call void @_ZN4pstd5arrayIfLi1024EEC2Ev(ptr noundef nonnull align 4 dereferenceable(4096) %13) #9
  call void @llvm.lifetime.start.p0(i64 4, ptr %5) #9
  store i32 0, ptr %5, align 4, !tbaa !23
  br label %14

14:                                               ; preds = %29, %2
  %15 = load i32, ptr %5, align 4, !tbaa !23
  %16 = icmp slt i32 %15, 256
  br i1 %16, label %18, label %17

17:                                               ; preds = %14
  call void @llvm.lifetime.end.p0(i64 4, ptr %5) #9
  br label %32

18:                                               ; preds = %14
  call void @llvm.lifetime.start.p0(i64 4, ptr %6) #9
  %19 = load i32, ptr %5, align 4, !tbaa !23
  %20 = sitofp i32 %19 to float
  %21 = fdiv float %20, 2.550000e+02
  store float %21, ptr %6, align 4, !tbaa !9
  %22 = load float, ptr %6, align 4, !tbaa !9
  %23 = load float, ptr %4, align 4, !tbaa !9
  %24 = call noundef float @_ZSt3powff(float noundef %22, float noundef %23)
  %25 = getelementptr inbounds nuw %"class.pbrt::GammaColorEncoding", ptr %9, i32 0, i32 1
  %26 = load i32, ptr %5, align 4, !tbaa !23
  %27 = sext i32 %26 to i64
  %28 = call noundef nonnull align 4 dereferenceable(4) ptr @_ZN4pstd5arrayIfLi256EEixEm(ptr noundef nonnull align 4 dereferenceable(1024) %25, i64 noundef %27)
  store float %24, ptr %28, align 4, !tbaa !9
  call void @llvm.lifetime.end.p0(i64 4, ptr %6) #9
  br label %29

29:                                               ; preds = %18
  %30 = load i32, ptr %5, align 4, !tbaa !23
  %31 = add nsw i32 %30, 1
  store i32 %31, ptr %5, align 4, !tbaa !23
  br label %14, !llvm.loop !126

32:                                               ; preds = %17
  call void @llvm.lifetime.start.p0(i64 4, ptr %7) #9
  store i32 0, ptr %7, align 4, !tbaa !23
  br label %33

33:                                               ; preds = %59, %32
  %34 = load i32, ptr %7, align 4, !tbaa !23
  %35 = getelementptr inbounds nuw %"class.pbrt::GammaColorEncoding", ptr %9, i32 0, i32 2
  %36 = call noundef i64 @_ZNK4pstd5arrayIfLi1024EE4sizeEv(ptr noundef nonnull align 4 dereferenceable(4096) %35)
  %37 = trunc i64 %36 to i32
  %38 = icmp slt i32 %34, %37
  br i1 %38, label %40, label %39

39:                                               ; preds = %33
  call void @llvm.lifetime.end.p0(i64 4, ptr %7) #9
  br label %62

40:                                               ; preds = %33
  call void @llvm.lifetime.start.p0(i64 4, ptr %8) #9
  %41 = load i32, ptr %7, align 4, !tbaa !23
  %42 = sitofp i32 %41 to float
  %43 = getelementptr inbounds nuw %"class.pbrt::GammaColorEncoding", ptr %9, i32 0, i32 2
  %44 = call noundef i64 @_ZNK4pstd5arrayIfLi1024EE4sizeEv(ptr noundef nonnull align 4 dereferenceable(4096) %43)
  %45 = sub i64 %44, 1
  %46 = uitofp i64 %45 to float
  %47 = fdiv float %42, %46
  store float %47, ptr %8, align 4, !tbaa !9
  %48 = load float, ptr %8, align 4, !tbaa !9
  %49 = load float, ptr %4, align 4, !tbaa !9
  %50 = fdiv float 1.000000e+00, %49
  %51 = call noundef float @_ZSt3powff(float noundef %48, float noundef %50)
  %52 = fmul float 2.550000e+02, %51
  %53 = fadd float %52, 5.000000e-01
  %54 = call noundef float @_ZN4pbrt5ClampIfiiEET_S1_T0_T1_(float noundef %53, i32 noundef 0, i32 noundef 255)
  %55 = getelementptr inbounds nuw %"class.pbrt::GammaColorEncoding", ptr %9, i32 0, i32 2
  %56 = load i32, ptr %7, align 4, !tbaa !23
  %57 = sext i32 %56 to i64
  %58 = call noundef nonnull align 4 dereferenceable(4) ptr @_ZN4pstd5arrayIfLi1024EEixEm(ptr noundef nonnull align 4 dereferenceable(4096) %55, i64 noundef %57)
  store float %54, ptr %58, align 4, !tbaa !9
  call void @llvm.lifetime.end.p0(i64 4, ptr %8) #9
  br label %59

59:                                               ; preds = %40
  %60 = load i32, ptr %7, align 4, !tbaa !23
  %61 = add nsw i32 %60, 1
  store i32 %61, ptr %7, align 4, !tbaa !23
  br label %33, !llvm.loop !127

62:                                               ; preds = %39
  ret void
}