; Function Attrs: mustprogress nofree nounwind memory(write) uwtable
define dso_local void @_ZN4pbrt18GammaColorEncodingC2Ef(ptr noundef nonnull writeonly align 4 captures(none) dereferenceable(5124) initializes((0, 5124)) %0, float noundef %1) unnamed_addr #10 align 2 {
  store float %1, ptr %0, align 4, !tbaa !93
  %3 = getelementptr inbounds nuw i8, ptr %0, i64 4
  %4 = getelementptr inbounds nuw i8, ptr %0, i64 1028
  tail call void @llvm.memset.p0.i64(ptr noundef nonnull align 4 dereferenceable(5120) %3, i8 0, i64 5120, i1 false)
  br label %6

.preheader:                                       ; preds = %6
  %5 = fdiv float 1.000000e+00, %1
  br label %13

6:                                                ; preds = %2, %6
  %indvars.iv = phi i64 [ 0, %2 ], [ %indvars.iv.next, %6 ]
  %7 = trunc nuw nsw i64 %indvars.iv to i32
  %8 = uitofp nneg i32 %7 to float
  %9 = fdiv float %8, 2.550000e+02
  %10 = tail call noundef float @powf(float noundef %9, float noundef %1) #30, !tbaa !21
  %11 = getelementptr inbounds nuw [256 x float], ptr %3, i64 0, i64 %indvars.iv
  store float %10, ptr %11, align 4, !tbaa !26
  %indvars.iv.next = add nuw nsw i64 %indvars.iv, 1
  %exitcond.not = icmp eq i64 %indvars.iv.next, 256
  br i1 %exitcond.not, label %.preheader, label %6, !llvm.loop !97

12:                                               ; preds = %13
  ret void

13:                                               ; preds = %.preheader, %13
  %indvars.iv17 = phi i64 [ 0, %.preheader ], [ %indvars.iv.next18, %13 ]
  %14 = trunc nuw nsw i64 %indvars.iv17 to i32
  %15 = uitofp nneg i32 %14 to float
  %16 = fdiv float %15, 1.023000e+03
  %17 = tail call noundef float @powf(float noundef %16, float noundef %5) #30, !tbaa !21
  %18 = fmul float %17, 2.550000e+02
  %19 = fadd float %18, 5.000000e-01
  %20 = fcmp olt float %19, 0.000000e+00
  %21 = fcmp ogt float %19, 2.550000e+02
  %..i = select i1 %21, float 2.550000e+02, float %19
  %.0.i = select i1 %20, float 0.000000e+00, float %..i
  %22 = getelementptr inbounds nuw [1024 x float], ptr %4, i64 0, i64 %indvars.iv17
  store float %.0.i, ptr %22, align 4, !tbaa !26
  %indvars.iv.next18 = add nuw nsw i64 %indvars.iv17, 1
  %exitcond20.not = icmp eq i64 %indvars.iv.next18, 1024
  br i1 %exitcond20.not, label %12, label %13, !llvm.loop !98
}